; Function Attrs: mustprogress nounwind uwtable
define internal void @_ZN12_GLOBAL__N_115cmQtAutoMocUicT14JobCompileMocTD0Ev(ptr noundef nonnull align 8 dereferenceable(64) %0) unnamed_addr #5 align 2 personality ptr @__gxx_personality_v0 {
  store ptr getelementptr inbounds ({ [5 x ptr] }, ptr @_ZTVN12_GLOBAL__N_115cmQtAutoMocUicT14JobCompileMocTE, i64 0, i32 0, i64 2), ptr %0, align 8
  %2 = getelementptr inbounds i8, ptr %0, i64 56
  %.val.i = load ptr, ptr %2, align 8
  %.not.i.i.i.i = icmp eq ptr %.val.i, null
  br i1 %.not.i.i.i.i, label %_ZN12_GLOBAL__N_115cmQtAutoMocUicT14JobCompileMocTD2Ev.exit, label %3

3:                                                ; preds = %1
  %4 = getelementptr inbounds i8, ptr %.val.i, i64 8
  %5 = load atomic i64, ptr %4 acquire, align 8
  %6 = icmp eq i64 %5, 4294967297
  %7 = trunc i64 %5 to i32
  br i1 %6, label %8, label %13

8:                                                ; preds = %3
  store i32 0, ptr %4, align 8
  %9 = getelementptr inbounds i8, ptr %.val.i, i64 12
  store i32 0, ptr %9, align 4
  %10 = load ptr, ptr %.val.i, align 8
  %11 = getelementptr inbounds i8, ptr %10, i64 16
  %12 = load ptr, ptr %11, align 8
  tail call void %12(ptr noundef nonnull align 8 dereferenceable(16) %.val.i) #23
  br label %_ZNSt16_Sp_counted_baseILN9__gnu_cxx12_Lock_policyE2EE24_M_release_last_use_coldEv.exit.sink.split.i.i.i.i.i

13:                                               ; preds = %3
  %14 = load i8, ptr @__libc_single_threaded, align 1
  %.not.i.i.i.i.i = icmp eq i8 %14, 0
  br i1 %.not.i.i.i.i.i, label %17, label %15

15:                                               ; preds = %13
  %16 = add nsw i32 %7, -1
  store i32 %16, ptr %4, align 4
  br label %19

17:                                               ; preds = %13
  %18 = atomicrmw volatile add ptr %4, i32 -1 acq_rel, align 4
  br label %19

19:                                               ; preds = %17, %15
  %.0.i.i.i.i.i = phi i32 [ %7, %15 ], [ %18, %17 ]
  %20 = icmp eq i32 %.0.i.i.i.i.i, 1
  br i1 %20, label %21, label %_ZN12_GLOBAL__N_115cmQtAutoMocUicT14JobCompileMocTD2Ev.exit

21:                                               ; preds = %19
  %22 = load ptr, ptr %.val.i, align 8
  %23 = getelementptr inbounds i8, ptr %22, i64 16
  %24 = load ptr, ptr %23, align 8
  tail call void %24(ptr noundef nonnull align 8 dereferenceable(16) %.val.i) #23
  %25 = getelementptr inbounds i8, ptr %.val.i, i64 12
  %26 = load i8, ptr @__libc_single_threaded, align 1
  %.not.i.i.i.i.i.i.i = icmp eq i8 %26, 0
  br i1 %.not.i.i.i.i.i.i.i, label %30, label %27

27:                                               ; preds = %21
  %28 = load i32, ptr %25, align 4
  %29 = add nsw i32 %28, -1
  store i32 %29, ptr %25, align 4
  br label %32

30:                                               ; preds = %21
  %31 = atomicrmw volatile add ptr %25, i32 -1 acq_rel, align 4
  br label %32

32:                                               ; preds = %30, %27
  %.0.i.i.i.i.i.i.i = phi i32 [ %28, %27 ], [ %31, %30 ]
  %33 = icmp eq i32 %.0.i.i.i.i.i.i.i, 1
  br i1 %33, label %_ZNSt16_Sp_counted_baseILN9__gnu_cxx12_Lock_policyE2EE24_M_release_last_use_coldEv.exit.sink.split.i.i.i.i.i, label %_ZN12_GLOBAL__N_115cmQtAutoMocUicT14JobCompileMocTD2Ev.exit

_ZNSt16_Sp_counted_baseILN9__gnu_cxx12_Lock_policyE2EE24_M_release_last_use_coldEv.exit.sink.split.i.i.i.i.i: ; preds = %32, %8
  %34 = load ptr, ptr %.val.i, align 8
  %35 = getelementptr inbounds i8, ptr %34, i64 24
  %36 = load ptr, ptr %35, align 8
  tail call void %36(ptr noundef nonnull align 8 dereferenceable(16) %.val.i) #23
  br label %_ZN12_GLOBAL__N_115cmQtAutoMocUicT14JobCompileMocTD2Ev.exit

_ZN12_GLOBAL__N_115cmQtAutoMocUicT14JobCompileMocTD2Ev.exit: ; preds = %1, %19, %32, %_ZNSt16_Sp_counted_baseILN9__gnu_cxx12_Lock_policyE2EE24_M_release_last_use_coldEv.exit.sink.split.i.i.i.i.i
  tail call void @_ZN12_GLOBAL__N_115cmQtAutoMocUicT11JobCompileTD2Ev(ptr noundef nonnull align 8 dereferenceable(48) %0) #23
  tail call void @_ZdlPv(ptr noundef nonnull %0) #24
  ret void
}